target datalayout = "e-m:e-p270:32:32-p271:32:32-p272:64:64-i64:64-i128:128-f80:128-n8:16:32:64-S128"
target triple = "x86_64-pc-linux-gnu"

%struct.Agobj_s = type { %struct.Agtag_s, ptr }
%struct.Agtag_s = type { i32, i64 }
%struct.dtlink_s_ = type { ptr, %union.anon }
%union.anon = type { ptr }
%struct.Agsym_s = type { %struct.dtlink_s_, ptr, ptr, i32, i8, i8, i8 }

; Function Attrs: mustprogress uwtable
define internal void @_ZL10cloneAttrsPvS_(ptr noundef %0, ptr noundef %1) #7 {
  %3 = alloca ptr, align 8
  %4 = alloca ptr, align 8
  %5 = alloca i32, align 4
  %6 = alloca ptr, align 8
  %7 = alloca ptr, align 8
  %8 = alloca ptr, align 8
  %9 = alloca ptr, align 8
  %10 = alloca ptr, align 8
  store ptr %0, ptr %3, align 8, !tbaa !42
  store ptr %1, ptr %4, align 8, !tbaa !42
  call void @llvm.lifetime.start.p0(i64 4, ptr %5) #3
  %11 = load ptr, ptr %3, align 8, !tbaa !42
  %12 = getelementptr inbounds nuw %struct.Agobj_s, ptr %11, i32 0, i32 0
  %13 = load i32, ptr %12, align 8
  %14 = and i32 %13, 3
  store i32 %14, ptr %5, align 4, !tbaa !12
  call void @llvm.lifetime.start.p0(i64 8, ptr %6) #3
  call void @llvm.lifetime.start.p0(i64 8, ptr %7) #3
  call void @llvm.lifetime.start.p0(i64 8, ptr %8) #3
  %15 = load ptr, ptr %3, align 8, !tbaa !42
  %16 = call ptr @agroot(ptr noundef %15)
  store ptr %16, ptr %8, align 8, !tbaa !30
  call void @llvm.lifetime.start.p0(i64 8, ptr %9) #3
  %17 = load ptr, ptr %4, align 8, !tbaa !42
  %18 = call ptr @agroot(ptr noundef %17)
  store ptr %18, ptr %9, align 8, !tbaa !30
  %19 = load ptr, ptr %8, align 8, !tbaa !30
  %20 = load i32, ptr %5, align 4, !tbaa !12
  %21 = call ptr @agnxtattr(ptr noundef %19, i32 noundef %20, ptr noundef null)
  store ptr %21, ptr %6, align 8, !tbaa !64
  br label %22

22:                                               ; preds = %53, %2
  %23 = load ptr, ptr %6, align 8, !tbaa !64
  %24 = icmp ne ptr %23, null
  br i1 %24, label %25, label %58

25:                                               ; preds = %22
  %26 = load ptr, ptr %3, align 8, !tbaa !42
  %27 = load ptr, ptr %6, align 8, !tbaa !64
  %28 = call ptr @agxget(ptr noundef %26, ptr noundef %27)
  store ptr %28, ptr %7, align 8, !tbaa !47
  %29 = load ptr, ptr %7, align 8, !tbaa !47
  %30 = call i32 @aghtmlstr(ptr noundef %29)
  %31 = icmp ne i32 %30, 0
  br i1 %31, label %32, label %45

32:                                               ; preds = %25
  call void @llvm.lifetime.start.p0(i64 8, ptr %10) #3
  %33 = load ptr, ptr %9, align 8, !tbaa !30
  %34 = load ptr, ptr %7, align 8, !tbaa !47
  %35 = call ptr @agstrdup_html(ptr noundef %33, ptr noundef %34)
  store ptr %35, ptr %10, align 8, !tbaa !47
  %36 = load ptr, ptr %4, align 8, !tbaa !42
  %37 = load ptr, ptr %6, align 8, !tbaa !64
  %38 = getelementptr inbounds nuw %struct.Agsym_s, ptr %37, i32 0, i32 1
  %39 = load ptr, ptr %38, align 8, !tbaa !224
  %40 = load ptr, ptr %10, align 8, !tbaa !47
  %41 = call i32 @agset(ptr noundef %36, ptr noundef %39, ptr noundef %40)
  %42 = load ptr, ptr %9, align 8, !tbaa !30
  %43 = load ptr, ptr %10, align 8, !tbaa !47
  %44 = call i32 @agstrfree(ptr noundef %42, ptr noundef %43, i1 noundef zeroext true)
  call void @llvm.lifetime.end.p0(i64 8, ptr %10) #3
  br label %52

45:                                               ; preds = %25
  %46 = load ptr, ptr %4, align 8, !tbaa !42
  %47 = load ptr, ptr %6, align 8, !tbaa !64
  %48 = getelementptr inbounds nuw %struct.Agsym_s, ptr %47, i32 0, i32 1
  %49 = load ptr, ptr %48, align 8, !tbaa !224
  %50 = load ptr, ptr %7, align 8, !tbaa !47
  %51 = call i32 @agset(ptr noundef %46, ptr noundef %49, ptr noundef %50)
  br label %52

52:                                               ; preds = %45, %32
  br label %53

53:                                               ; preds = %52
  %54 = load ptr, ptr %8, align 8, !tbaa !30
  %55 = load i32, ptr %5, align 4, !tbaa !12
  %56 = load ptr, ptr %6, align 8, !tbaa !64
  %57 = call ptr @agnxtattr(ptr noundef %54, i32 noundef %55, ptr noundef %56)
  store ptr %57, ptr %6, align 8, !tbaa !64
  br label %22, !llvm.loop !339

58:                                               ; preds = %22
  call void @llvm.lifetime.end.p0(i64 8, ptr %9) #3
  call void @llvm.lifetime.end.p0(i64 8, ptr %8) #3
  call void @llvm.lifetime.end.p0(i64 8, ptr %7) #3
  call void @llvm.lifetime.end.p0(i64 8, ptr %6) #3
  call void @llvm.lifetime.end.p0(i64 4, ptr %5) #3
  ret void
}