; Function Attrs: mustprogress uwtable
define internal fastcc void @_ZL10cloneAttrsPvS_(ptr noundef %0, ptr noundef %1) unnamed_addr #19 {
  %3 = load i32, ptr %0, align 8
  %4 = and i32 %3, 3
  %5 = tail call ptr @agroot(ptr noundef nonnull %0)
  %6 = tail call ptr @agroot(ptr noundef %1)
  %7 = tail call ptr @agnxtattr(ptr noundef %5, i32 noundef %4, ptr noundef null)
  %.not22 = icmp eq ptr %7, null
  br i1 %.not22, label %._crit_edge, label %.lr.ph

.lr.ph:                                           ; preds = %2, %20
  %.023 = phi ptr [ %21, %20 ], [ %7, %2 ]
  %8 = tail call ptr @agxget(ptr noundef nonnull %0, ptr noundef nonnull %.023)
  %9 = tail call i32 @aghtmlstr(ptr noundef %8)
  %.not21 = icmp eq i32 %9, 0
  br i1 %.not21, label %16, label %10

10:                                               ; preds = %.lr.ph
  %11 = tail call ptr @agstrdup_html(ptr noundef %6, ptr noundef %8)
  %12 = getelementptr inbounds nuw i8, ptr %.023, i64 16
  %13 = load ptr, ptr %12, align 8, !tbaa !110
  %14 = tail call i32 @agset(ptr noundef %1, ptr noundef %13, ptr noundef %11)
  %15 = tail call i32 @agstrfree(ptr noundef %6, ptr noundef %11, i1 noundef zeroext true)
  br label %20

16:                                               ; preds = %.lr.ph
  %17 = getelementptr inbounds nuw i8, ptr %.023, i64 16
  %18 = load ptr, ptr %17, align 8, !tbaa !110
  %19 = tail call i32 @agset(ptr noundef %1, ptr noundef %18, ptr noundef %8)
  br label %20

20:                                               ; preds = %10, %16
  %21 = tail call ptr @agnxtattr(ptr noundef %5, i32 noundef %4, ptr noundef nonnull %.023)
  %.not = icmp eq ptr %21, null
  br i1 %.not, label %._crit_edge, label %.lr.ph, !llvm.loop !114

._crit_edge:                                      ; preds = %20, %2
  ret void
}